; Function Attrs: nounwind uwtable
define range(i32 -1, 1) i32 @H5VL__native_register() local_unnamed_addr #0 {
  %1 = load ptr, ptr @H5VL_NATIVE_conn_g, align 8, !tbaa !3
  %2 = icmp eq ptr %1, null
  br i1 %2, label %3, label %11

3:                                                ; preds = %0
  %4 = load i64, ptr @H5P_LST_VOL_INITIALIZE_ID_g, align 8, !tbaa !8
  %5 = tail call ptr @H5VL__register_connector(ptr noundef nonnull @H5VL_native_cls_g, i64 noundef %4) #6
  store ptr %5, ptr @H5VL_NATIVE_conn_g, align 8, !tbaa !3
  %6 = icmp eq ptr %5, null
  br i1 %6, label %7, label %11

7:                                                ; preds = %3
  %8 = load i64, ptr @H5E_VOL_g, align 8, !tbaa !8
  %9 = load i64, ptr @H5E_CANTREGISTER_g, align 8, !tbaa !8
  %10 = tail call i32 (ptr, ptr, i32, i64, i64, ptr, ...) @H5E_printf_stack(ptr noundef nonnull @.str, ptr noundef nonnull @__func__.H5VL__native_register, i32 noundef 202, i64 noundef %8, i64 noundef %9, ptr noundef nonnull @.str.1) #6
  br label %25

11:                                               ; preds = %3, %0
  %12 = load i64, ptr @H5VL_NATIVE_g, align 8, !tbaa !8
  %13 = tail call i32 @H5I_get_type(i64 noundef %12) #6
  %.not = icmp eq i32 %13, 9
  br i1 %.not, label %25, label %14

14:                                               ; preds = %11
  %15 = load ptr, ptr @H5VL_NATIVE_conn_g, align 8, !tbaa !3
  %16 = tail call i64 @H5I_register(i32 noundef 9, ptr noundef %15, i1 noundef zeroext false) #6
  store i64 %16, ptr @H5VL_NATIVE_g, align 8, !tbaa !8
  %17 = icmp slt i64 %16, 0
  br i1 %17, label %18, label %22

18:                                               ; preds = %14
  %19 = load i64, ptr @H5E_VOL_g, align 8, !tbaa !8
  %20 = load i64, ptr @H5E_CANTREGISTER_g, align 8, !tbaa !8
  %21 = tail call i32 (ptr, ptr, i32, i64, i64, ptr, ...) @H5E_printf_stack(ptr noundef nonnull @.str, ptr noundef nonnull @__func__.H5VL__native_register, i32 noundef 207, i64 noundef %19, i64 noundef %20, ptr noundef nonnull @.str.2) #6
  br label %25

22:                                               ; preds = %14
  %23 = load ptr, ptr @H5VL_NATIVE_conn_g, align 8, !tbaa !3
  %24 = tail call i64 @H5VL_conn_inc_rc(ptr noundef %23) #6
  br label %25

25:                                               ; preds = %11, %22, %18, %7
  %.0 = phi i32 [ -1, %7 ], [ -1, %18 ], [ 0, %22 ], [ 0, %11 ]
  ret i32 %.0
}